; Function Attrs: mustprogress uwtable
define hidden void @_ZN7datalog12rule_manager18reset_collect_varsEv(ptr noundef nonnull align 8 dereferenceable(1368) %this) local_unnamed_addr #3 align 2 {
entry:
  %m_var_idx = getelementptr inbounds i8, ptr %this, i64 288
  %0 = load ptr, ptr %m_var_idx, align 8
  %tobool.not.i.i = icmp eq ptr %0, null
  br i1 %tobool.not.i.i, label %_ZN8uint_set5resetEv.exit, label %if.then.i.i

if.then.i.i:                                      ; preds = %entry
  %arrayidx.i.i = getelementptr inbounds i8, ptr %0, i64 -4
  store i32 0, ptr %arrayidx.i.i, align 4
  br label %_ZN8uint_set5resetEv.exit

_ZN8uint_set5resetEv.exit:                        ; preds = %entry, %if.then.i.i
  %m_free_vars = getelementptr inbounds i8, ptr %this, i64 296
  tail call void @_ZN14expr_free_vars5resetEv(ptr noundef nonnull align 8 dereferenceable(40) %m_free_vars)
  ret void
}